; Function Attrs: nounwind uwtable
define hidden i32 @lj_opt_narrow_tobit(ptr noundef %0, i32 noundef %1) local_unnamed_addr #0 {
  %3 = and i32 %1, 520093696
  %4 = icmp eq i32 %3, 67108864
  br i1 %4, label %5, label %11

5:                                                ; preds = %2
  %6 = trunc i32 %1 to i16
  %7 = getelementptr inbounds nuw i8, ptr %0, i64 184
  %8 = getelementptr inbounds nuw i8, ptr %0, i64 188
  store i16 24206, ptr %8, align 4, !tbaa !32
  store i16 %6, ptr %7, align 8, !tbaa !32
  %9 = getelementptr inbounds nuw i8, ptr %0, i64 186
  store i16 0, ptr %9, align 2, !tbaa !32
  %10 = tail call i32 @lj_opt_fold(ptr noundef %0) #6
  br label %11

11:                                               ; preds = %5, %2
  %.0 = phi i32 [ %10, %5 ], [ %1, %2 ]
  %12 = and i32 %.0, 520093696
  %13 = icmp eq i32 %12, 234881024
  br i1 %13, label %14, label %22

14:                                               ; preds = %11
  %15 = trunc i32 %.0 to i16
  %16 = tail call i32 @lj_ir_knum_u64(ptr noundef %0, i64 noundef 4843621399236968448) #6
  %17 = trunc i32 %16 to i16
  %18 = getelementptr inbounds nuw i8, ptr %0, i64 184
  %19 = getelementptr inbounds nuw i8, ptr %0, i64 188
  store i16 23571, ptr %19, align 4, !tbaa !32
  store i16 %15, ptr %18, align 8, !tbaa !32
  %20 = getelementptr inbounds nuw i8, ptr %0, i64 186
  store i16 %17, ptr %20, align 2, !tbaa !32
  %21 = tail call i32 @lj_opt_fold(ptr noundef %0) #6
  br label %30

22:                                               ; preds = %11
  %23 = lshr i32 %.0, 24
  %24 = and i32 %23, 31
  %25 = add nsw i32 %24, -15
  %26 = icmp ult i32 %25, 5
  br i1 %26, label %28, label %27

27:                                               ; preds = %22
  tail call void @lj_trace_err(ptr noundef %0, i32 noundef 11) #7
  unreachable

28:                                               ; preds = %22
  %29 = tail call fastcc i32 @narrow_stripov(ptr noundef %0, i32 noundef %.0, i32 noundef 54, i32 noundef 627)
  br label %30

30:                                               ; preds = %28, %14
  %.013 = phi i32 [ %21, %14 ], [ %29, %28 ]
  ret i32 %.013
}